ccopy_reg
_reconstructor
p0
(ceasydict
EasyDict
p1
c__builtin__
dict
p2
(dp3
S'timeAtSave'
p4
(lp5
F22.0
aF42.0
asS'stepAtSave'
p6
(lp7
F22.0
aF42.0
asS'surfaceTempGrad'
p8
(lp9
F66.0
aF166.0
asS'viscousDissGlobal'
p10
(lp11
F1.0
aF12.0
astp12
Rp13
(dp14
g4
g5
sg6
g7
sg8
g9
sg10
g11
sb.